target datalayout = "e-m:e-p270:32:32-p271:32:32-p272:64:64-i64:64-i128:128-f80:128-n8:16:32:64-S128"
target triple = "x86_64-pc-linux-gnu"

%union.ListCell = type { ptr }
%struct.QualCost = type { double, double }
%struct.PlannerInfo = type { i32, ptr, ptr, i32, ptr, ptr, ptr, ptr, i32, ptr, ptr, ptr, ptr, ptr, ptr, ptr, ptr, i32, ptr, ptr, ptr, ptr, ptr, i8, ptr, ptr, ptr, ptr, ptr, i32, ptr, ptr, ptr, ptr, ptr, ptr, ptr, i32, ptr, ptr, ptr, i32, ptr, ptr, ptr, ptr, ptr, ptr, [8 x ptr], [8 x ptr], ptr, ptr, ptr, ptr, ptr, ptr, ptr, double, double, double, i32, i8, i8, i8, i8, i8, i8, i8, i32, ptr, ptr, i32, i8, i8, i32, ptr, ptr, ptr, ptr, ptr, ptr, i8, ptr }
%struct.List = type { i32, i32, i32, ptr, [0 x %union.ListCell] }
%struct.EquivalenceClass = type { i32, ptr, i32, ptr, ptr, ptr, ptr, i8, i8, i8, i32, i32, i32, ptr }
%struct.RelOptInfo = type { i32, i32, ptr, double, i8, i8, i8, ptr, ptr, ptr, ptr, ptr, ptr, ptr, ptr, ptr, ptr, i32, i32, i32, i16, i16, ptr, ptr, ptr, ptr, ptr, ptr, ptr, ptr, i32, double, double, ptr, ptr, ptr, i32, i32, i32, i32, i8, ptr, ptr, ptr, ptr, ptr, %struct.QualCost, i32, ptr, i8, i8, ptr, ptr, ptr, ptr, i32, ptr, i8, ptr, ptr, ptr, ptr, ptr, ptr }
%struct.SpecialJoinInfo = type { i32, ptr, ptr, ptr, ptr, i32, i32, ptr, ptr, ptr, ptr, i8, i8, i8, ptr, ptr }

; Function Attrs: inlinehint nounwind uwtable
define internal ptr @list_nth_cell(ptr noundef %0, i32 noundef %1) #2 {
  %3 = alloca ptr, align 8
  %4 = alloca i32, align 4
  store ptr %0, ptr %3, align 8
  store i32 %1, ptr %4, align 4
  %5 = load ptr, ptr %3, align 8
  %6 = getelementptr inbounds nuw %struct.List, ptr %5, i32 0, i32 3
  %7 = load ptr, ptr %6, align 8
  %8 = load i32, ptr %4, align 4
  %9 = sext i32 %8 to i64
  %10 = getelementptr inbounds %union.ListCell, ptr %7, i64 %9
  ret ptr %10
}

; Function Attrs: inlinehint nounwind uwtable
define internal i32 @list_length(ptr noundef %0) #2 {
  %2 = alloca ptr, align 8
  store ptr %0, ptr %2, align 8
  %3 = load ptr, ptr %2, align 8
  %4 = icmp ne ptr %3, null
  br i1 %4, label %5, label %9

5:                                                ; preds = %1
  %6 = load ptr, ptr %2, align 8
  %7 = getelementptr inbounds nuw %struct.List, ptr %6, i32 0, i32 1
  %8 = load i32, ptr %7, align 4
  br label %10

9:                                                ; preds = %1
  br label %10

10:                                               ; preds = %9, %5
  %11 = phi i32 [ %8, %5 ], [ 0, %9 ]
  ret i32 %11
}

; Function Attrs: inlinehint nounwind uwtable
define internal ptr @list_nth(ptr noundef %0, i32 noundef %1) #2 {
  %3 = alloca ptr, align 8
  %4 = alloca i32, align 4
  store ptr %0, ptr %3, align 8
  store i32 %1, ptr %4, align 4
  %5 = load ptr, ptr %3, align 8
  %6 = load i32, ptr %4, align 4
  %7 = call ptr @list_nth_cell(ptr noundef %5, i32 noundef %6)
  %8 = load ptr, ptr %7, align 8
  ret ptr %8
}

; Function Attrs: nounwind uwtable
define internal ptr @get_eclass_indexes_for_relids(ptr noundef %0, ptr noundef %1) #0 {
  %3 = alloca ptr, align 8
  %4 = alloca ptr, align 8
  %5 = alloca ptr, align 8
  %6 = alloca i32, align 4
  %7 = alloca ptr, align 8
  %8 = alloca i32, align 4
  store ptr %0, ptr %3, align 8
  store ptr %1, ptr %4, align 8
  call void @llvm.lifetime.start.p0(i64 8, ptr %5) #6
  store ptr null, ptr %5, align 8
  call void @llvm.lifetime.start.p0(i64 4, ptr %6) #6
  store i32 -1, ptr %6, align 4
  br label %9

9:                                                ; preds = %40, %38, %2
  %10 = load ptr, ptr %4, align 8
  %11 = load i32, ptr %6, align 4
  %12 = call i32 @bms_next_member(ptr noundef %10, i32 noundef %11)
  store i32 %12, ptr %6, align 4
  %13 = icmp sgt i32 %12, 0
  br i1 %13, label %14, label %41

14:                                               ; preds = %9
  call void @llvm.lifetime.start.p0(i64 8, ptr %7) #6
  %15 = load ptr, ptr %3, align 8
  %16 = getelementptr inbounds nuw %struct.PlannerInfo, ptr %15, i32 0, i32 7
  %17 = load ptr, ptr %16, align 8
  %18 = load i32, ptr %6, align 4
  %19 = sext i32 %18 to i64
  %20 = getelementptr inbounds ptr, ptr %17, i64 %19
  %21 = load ptr, ptr %20, align 8
  store ptr %21, ptr %7, align 8
  %22 = load i32, ptr %6, align 4
  %23 = load ptr, ptr %3, align 8
  %24 = getelementptr inbounds nuw %struct.PlannerInfo, ptr %23, i32 0, i32 68
  %25 = load i32, ptr %24, align 4
  %26 = icmp eq i32 %22, %25
  br i1 %26, label %27, label %28

27:                                               ; preds = %14
  store i32 2, ptr %8, align 4
  br label %38, !llvm.loop !26

28:                                               ; preds = %14
  %29 = load ptr, ptr %7, align 8
  %30 = icmp eq ptr %29, null
  br i1 %30, label %31, label %32

31:                                               ; preds = %28
  store i32 2, ptr %8, align 4
  br label %38, !llvm.loop !26

32:                                               ; preds = %28
  %33 = load ptr, ptr %5, align 8
  %34 = load ptr, ptr %7, align 8
  %35 = getelementptr inbounds nuw %struct.RelOptInfo, ptr %34, i32 0, i32 33
  %36 = load ptr, ptr %35, align 8
  %37 = call ptr @bms_add_members(ptr noundef %33, ptr noundef %36)
  store ptr %37, ptr %5, align 8
  store i32 0, ptr %8, align 4
  br label %38

38:                                               ; preds = %32, %31, %27
  call void @llvm.lifetime.end.p0(i64 8, ptr %7) #6
  %39 = load i32, ptr %8, align 4
  switch i32 %39, label %43 [
    i32 0, label %40
    i32 2, label %9
  ]

40:                                               ; preds = %38
  br label %9, !llvm.loop !26

41:                                               ; preds = %9
  %42 = load ptr, ptr %5, align 8
  store i32 1, ptr %8, align 4
  call void @llvm.lifetime.end.p0(i64 4, ptr %6) #6
  call void @llvm.lifetime.end.p0(i64 8, ptr %5) #6
  ret ptr %42

43:                                               ; preds = %38
  unreachable
}

; Function Attrs: nounwind uwtable
define dso_local ptr @generate_join_implied_equalities(ptr noundef %0, ptr noundef %1, ptr noundef %2, ptr noundef %3, ptr noundef %4) #0 {
  %6 = alloca ptr, align 8
  %7 = alloca ptr, align 8
  %8 = alloca ptr, align 8
  %9 = alloca ptr, align 8
  %10 = alloca ptr, align 8
  %11 = alloca ptr, align 8
  %12 = alloca ptr, align 8
  %13 = alloca ptr, align 8
  %14 = alloca ptr, align 8
  %15 = alloca ptr, align 8
  %16 = alloca i32, align 4
  %17 = alloca ptr, align 8
  %18 = alloca ptr, align 8
  %19 = alloca i32, align 4
  store ptr %0, ptr %6, align 8
  store ptr %1, ptr %7, align 8
  store ptr %2, ptr %8, align 8
  store ptr %3, ptr %9, align 8
  store ptr %4, ptr %10, align 8
  call void @llvm.lifetime.start.p0(i64 8, ptr %11) #6
  store ptr null, ptr %11, align 8
  call void @llvm.lifetime.start.p0(i64 8, ptr %12) #6
  %20 = load ptr, ptr %9, align 8
  %21 = getelementptr inbounds nuw %struct.RelOptInfo, ptr %20, i32 0, i32 2
  %22 = load ptr, ptr %21, align 8
  store ptr %22, ptr %12, align 8
  call void @llvm.lifetime.start.p0(i64 8, ptr %13) #6
  call void @llvm.lifetime.start.p0(i64 8, ptr %14) #6
  call void @llvm.lifetime.start.p0(i64 8, ptr %15) #6
  call void @llvm.lifetime.start.p0(i64 4, ptr %16) #6
  %23 = load ptr, ptr %9, align 8
  %24 = getelementptr inbounds nuw %struct.RelOptInfo, ptr %23, i32 0, i32 1
  %25 = load i32, ptr %24, align 4
  %26 = icmp eq i32 %25, 2
  br i1 %26, label %37, label %27

27:                                               ; preds = %5
  %28 = load ptr, ptr %9, align 8
  %29 = getelementptr inbounds nuw %struct.RelOptInfo, ptr %28, i32 0, i32 1
  %30 = load i32, ptr %29, align 4
  %31 = icmp eq i32 %30, 3
  br i1 %31, label %37, label %32

32:                                               ; preds = %27
  %33 = load ptr, ptr %9, align 8
  %34 = getelementptr inbounds nuw %struct.RelOptInfo, ptr %33, i32 0, i32 1
  %35 = load i32, ptr %34, align 4
  %36 = icmp eq i32 %35, 5
  br i1 %36, label %37, label %48

37:                                               ; preds = %32, %27, %5
  %38 = load ptr, ptr %9, align 8
  %39 = getelementptr inbounds nuw %struct.RelOptInfo, ptr %38, i32 0, i32 53
  %40 = load ptr, ptr %39, align 8
  store ptr %40, ptr %13, align 8
  %41 = load ptr, ptr %8, align 8
  %42 = load ptr, ptr %13, align 8
  %43 = call ptr @bms_union(ptr noundef %41, ptr noundef %42)
  store ptr %43, ptr %14, align 8
  %44 = load ptr, ptr %6, align 8
  %45 = load ptr, ptr %14, align 8
  %46 = load ptr, ptr %10, align 8
  %47 = call ptr @add_outer_joins_to_relids(ptr noundef %44, ptr noundef %45, ptr noundef %46, ptr noundef null)
  store ptr %47, ptr %14, align 8
  br label %51

48:                                               ; preds = %32
  %49 = load ptr, ptr %12, align 8
  store ptr %49, ptr %13, align 8
  %50 = load ptr, ptr %7, align 8
  store ptr %50, ptr %14, align 8
  br label %51

51:                                               ; preds = %48, %37
  %52 = load ptr, ptr %10, align 8
  %53 = icmp ne ptr %52, null
  br i1 %53, label %54, label %63

54:                                               ; preds = %51
  %55 = load ptr, ptr %10, align 8
  %56 = getelementptr inbounds nuw %struct.SpecialJoinInfo, ptr %55, i32 0, i32 6
  %57 = load i32, ptr %56, align 4
  %58 = icmp ne i32 %57, 0
  br i1 %58, label %59, label %63

59:                                               ; preds = %54
  %60 = load ptr, ptr %6, align 8
  %61 = load ptr, ptr %14, align 8
  %62 = call ptr @get_eclass_indexes_for_relids(ptr noundef %60, ptr noundef %61)
  store ptr %62, ptr %15, align 8
  br label %68

63:                                               ; preds = %54, %51
  %64 = load ptr, ptr %6, align 8
  %65 = load ptr, ptr %13, align 8
  %66 = load ptr, ptr %8, align 8
  %67 = call ptr @get_common_eclass_indexes(ptr noundef %64, ptr noundef %65, ptr noundef %66)
  store ptr %67, ptr %15, align 8
  br label %68

68:                                               ; preds = %63, %59
  store i32 -1, ptr %16, align 4
  br label %69

69:                                               ; preds = %123, %121, %68
  %70 = load ptr, ptr %15, align 8
  %71 = load i32, ptr %16, align 4
  %72 = call i32 @bms_next_member(ptr noundef %70, i32 noundef %71)
  store i32 %72, ptr %16, align 4
  %73 = icmp sge i32 %72, 0
  br i1 %73, label %74, label %124

74:                                               ; preds = %69
  call void @llvm.lifetime.start.p0(i64 8, ptr %17) #6
  %75 = load ptr, ptr %6, align 8
  %76 = getelementptr inbounds nuw %struct.PlannerInfo, ptr %75, i32 0, i32 22
  %77 = load ptr, ptr %76, align 8
  %78 = load i32, ptr %16, align 4
  %79 = call ptr @list_nth(ptr noundef %77, i32 noundef %78)
  store ptr %79, ptr %17, align 8
  call void @llvm.lifetime.start.p0(i64 8, ptr %18) #6
  store ptr null, ptr %18, align 8
  %80 = load ptr, ptr %17, align 8
  %81 = getelementptr inbounds nuw %struct.EquivalenceClass, ptr %80, i32 0, i32 7
  %82 = load i8, ptr %81, align 8, !range !4, !noundef !5
  %83 = trunc i8 %82 to i1
  br i1 %83, label %84, label %85

84:                                               ; preds = %74
  store i32 2, ptr %19, align 4
  br label %121, !llvm.loop !25

85:                                               ; preds = %74
  %86 = load ptr, ptr %17, align 8
  %87 = getelementptr inbounds nuw %struct.EquivalenceClass, ptr %86, i32 0, i32 3
  %88 = load ptr, ptr %87, align 8
  %89 = call i32 @list_length(ptr noundef %88)
  %90 = icmp sle i32 %89, 1
  br i1 %90, label %91, label %92

91:                                               ; preds = %85
  store i32 2, ptr %19, align 4
  br label %121, !llvm.loop !25

92:                                               ; preds = %85
  %93 = load ptr, ptr %17, align 8
  %94 = getelementptr inbounds nuw %struct.EquivalenceClass, ptr %93, i32 0, i32 9
  %95 = load i8, ptr %94, align 2, !range !4, !noundef !5
  %96 = trunc i8 %95 to i1
  br i1 %96, label %104, label %97

97:                                               ; preds = %92
  %98 = load ptr, ptr %6, align 8
  %99 = load ptr, ptr %17, align 8
  %100 = load ptr, ptr %7, align 8
  %101 = load ptr, ptr %8, align 8
  %102 = load ptr, ptr %12, align 8
  %103 = call ptr @generate_join_implied_equalities_normal(ptr noundef %98, ptr noundef %99, ptr noundef %100, ptr noundef %101, ptr noundef %102)
  store ptr %103, ptr %18, align 8
  br label %104

104:                                              ; preds = %97, %92
  %105 = load ptr, ptr %17, align 8
  %106 = getelementptr inbounds nuw %struct.EquivalenceClass, ptr %105, i32 0, i32 9
  %107 = load i8, ptr %106, align 2, !range !4, !noundef !5
  %108 = trunc i8 %107 to i1
  br i1 %108, label %109, label %117

109:                                              ; preds = %104
  %110 = load ptr, ptr %6, align 8
  %111 = load ptr, ptr %17, align 8
  %112 = load ptr, ptr %14, align 8
  %113 = load ptr, ptr %8, align 8
  %114 = load ptr, ptr %13, align 8
  %115 = load ptr, ptr %9, align 8
  %116 = call ptr @generate_join_implied_equalities_broken(ptr noundef %110, ptr noundef %111, ptr noundef %112, ptr noundef %113, ptr noundef %114, ptr noundef %115)
  store ptr %116, ptr %18, align 8
  br label %117

117:                                              ; preds = %109, %104
  %118 = load ptr, ptr %11, align 8
  %119 = load ptr, ptr %18, align 8
  %120 = call ptr @list_concat(ptr noundef %118, ptr noundef %119)
  store ptr %120, ptr %11, align 8
  store i32 0, ptr %19, align 4
  br label %121

121:                                              ; preds = %117, %91, %84
  call void @llvm.lifetime.end.p0(i64 8, ptr %18) #6
  call void @llvm.lifetime.end.p0(i64 8, ptr %17) #6
  %122 = load i32, ptr %19, align 4
  switch i32 %122, label %126 [
    i32 0, label %123
    i32 2, label %69
  ]

123:                                              ; preds = %121
  br label %69, !llvm.loop !25

124:                                              ; preds = %69
  %125 = load ptr, ptr %11, align 8
  store i32 1, ptr %19, align 4
  call void @llvm.lifetime.end.p0(i64 4, ptr %16) #6
  call void @llvm.lifetime.end.p0(i64 8, ptr %15) #6
  call void @llvm.lifetime.end.p0(i64 8, ptr %14) #6
  call void @llvm.lifetime.end.p0(i64 8, ptr %13) #6
  call void @llvm.lifetime.end.p0(i64 8, ptr %12) #6
  call void @llvm.lifetime.end.p0(i64 8, ptr %11) #6
  ret ptr %125

126:                                              ; preds = %121
  unreachable
}