; Function Attrs: nounwind uwtable
define dso_local ptr @generate_join_implied_equalities(ptr noundef %0, ptr noundef %1, ptr noundef %2, ptr noundef %3, ptr noundef %4) local_unnamed_addr #0 {
  %6 = getelementptr inbounds nuw i8, ptr %3, i64 8
  %7 = load ptr, ptr %6, align 8
  %8 = getelementptr inbounds nuw i8, ptr %3, i64 4
  %9 = load i32, ptr %8, align 4
  switch i32 %9, label %15 [
    i32 2, label %10
    i32 3, label %10
    i32 5, label %10
  ]

10:                                               ; preds = %5, %5, %5
  %11 = getelementptr inbounds nuw i8, ptr %3, i64 360
  %12 = load ptr, ptr %11, align 8
  %13 = tail call ptr @bms_union(ptr noundef %2, ptr noundef %12) #8
  %14 = tail call ptr @add_outer_joins_to_relids(ptr noundef %0, ptr noundef %13, ptr noundef %4, ptr noundef null) #8
  br label %15

15:                                               ; preds = %5, %10
  %.045 = phi ptr [ %12, %10 ], [ %7, %5 ]
  %.044 = phi ptr [ %14, %10 ], [ %1, %5 ]
  %.not = icmp eq ptr %4, null
  br i1 %.not, label %40, label %16

16:                                               ; preds = %15
  %17 = getelementptr inbounds nuw i8, ptr %4, i64 44
  %18 = load i32, ptr %17, align 4
  %.not49 = icmp eq i32 %18, 0
  br i1 %.not49, label %40, label %19

19:                                               ; preds = %16
  %20 = tail call i32 @bms_next_member(ptr noundef %.044, i32 noundef -1) #8
  %21 = icmp sgt i32 %20, 0
  br i1 %21, label %.lr.ph.i, label %get_eclass_indexes_for_relids.exit

.lr.ph.i:                                         ; preds = %19
  %22 = getelementptr inbounds nuw i8, ptr %0, i64 56
  %23 = getelementptr inbounds nuw i8, ptr %0, i64 604
  br label %24

24:                                               ; preds = %37, %.lr.ph.i
  %25 = phi i32 [ %20, %.lr.ph.i ], [ %38, %37 ]
  %.012.i = phi ptr [ null, %.lr.ph.i ], [ %.1.i, %37 ]
  %26 = load ptr, ptr %22, align 8
  %27 = zext nneg i32 %25 to i64
  %28 = getelementptr inbounds nuw ptr, ptr %26, i64 %27
  %29 = load ptr, ptr %28, align 8
  %30 = load i32, ptr %23, align 4
  %31 = icmp eq i32 %25, %30
  %32 = icmp eq ptr %29, null
  %or.cond.i = select i1 %31, i1 true, i1 %32
  br i1 %or.cond.i, label %37, label %33, !llvm.loop !11

33:                                               ; preds = %24
  %34 = getelementptr inbounds nuw i8, ptr %29, i64 216
  %35 = load ptr, ptr %34, align 8
  %36 = tail call ptr @bms_add_members(ptr noundef %.012.i, ptr noundef %35) #8
  br label %37

37:                                               ; preds = %33, %24
  %.1.i = phi ptr [ %36, %33 ], [ %.012.i, %24 ]
  %38 = tail call i32 @bms_next_member(ptr noundef %.044, i32 noundef %25) #8
  %39 = icmp sgt i32 %38, 0
  br i1 %39, label %24, label %get_eclass_indexes_for_relids.exit

40:                                               ; preds = %16, %15
  %41 = tail call fastcc ptr @get_common_eclass_indexes(ptr noundef %0, ptr noundef %.045, ptr noundef %2)
  br label %get_eclass_indexes_for_relids.exit

get_eclass_indexes_for_relids.exit:               ; preds = %37, %19, %40
  %.043 = phi ptr [ %41, %40 ], [ null, %19 ], [ %.1.i, %37 ]
  %42 = tail call i32 @bms_next_member(ptr noundef %.043, i32 noundef -1) #8
  %43 = icmp sgt i32 %42, -1
  br i1 %43, label %.lr.ph, label %._crit_edge

.lr.ph:                                           ; preds = %get_eclass_indexes_for_relids.exit
  %44 = getelementptr inbounds nuw i8, ptr %0, i64 176
  br label %45

45:                                               ; preds = %.lr.ph, %list_length.exit.thread
  %46 = phi i32 [ %42, %.lr.ph ], [ %72, %list_length.exit.thread ]
  %.04051 = phi ptr [ null, %.lr.ph ], [ %.141, %list_length.exit.thread ]
  %47 = load ptr, ptr %44, align 8
  %48 = getelementptr i8, ptr %47, i64 16
  %.val = load ptr, ptr %48, align 8
  %49 = zext nneg i32 %46 to i64
  %50 = getelementptr inbounds nuw %union.ListCell, ptr %.val, i64 %49
  %51 = load ptr, ptr %50, align 8
  %52 = getelementptr inbounds nuw i8, ptr %51, i64 56
  %53 = load i8, ptr %52, align 8, !range !4, !noundef !5
  %54 = trunc nuw i8 %53 to i1
  br i1 %54, label %list_length.exit.thread, label %55, !llvm.loop !12

55:                                               ; preds = %45
  %56 = getelementptr inbounds nuw i8, ptr %51, i64 24
  %57 = load ptr, ptr %56, align 8
  %.not.i = icmp eq ptr %57, null
  br i1 %.not.i, label %list_length.exit.thread, label %list_length.exit

list_length.exit:                                 ; preds = %55
  %58 = getelementptr inbounds nuw i8, ptr %57, i64 4
  %59 = load i32, ptr %58, align 4
  %60 = icmp slt i32 %59, 2
  br i1 %60, label %list_length.exit.thread, label %61, !llvm.loop !12

61:                                               ; preds = %list_length.exit
  %62 = getelementptr inbounds nuw i8, ptr %51, i64 58
  %63 = load i8, ptr %62, align 2, !range !4, !noundef !5
  %64 = trunc nuw i8 %63 to i1
  br i1 %64, label %.thread, label %65

65:                                               ; preds = %61
  %66 = tail call fastcc ptr @generate_join_implied_equalities_normal(ptr noundef nonnull %0, ptr noundef nonnull %51, ptr noundef %1, ptr noundef %2, ptr noundef %7)
  %.pre = load i8, ptr %62, align 2, !range !4
  %67 = trunc nuw i8 %.pre to i1
  br i1 %67, label %.thread, label %70

.thread:                                          ; preds = %61, %65
  %68 = getelementptr i8, ptr %51, i64 32
  %.val50 = load ptr, ptr %68, align 8
  %69 = tail call fastcc ptr @generate_join_implied_equalities_broken(ptr noundef nonnull %0, ptr %.val50, ptr noundef %.044, ptr noundef %2, ptr noundef %.045, ptr noundef %3)
  br label %70

70:                                               ; preds = %.thread, %65
  %.1 = phi ptr [ %69, %.thread ], [ %66, %65 ]
  %71 = tail call ptr @list_concat(ptr noundef %.04051, ptr noundef %.1) #8
  br label %list_length.exit.thread

list_length.exit.thread:                          ; preds = %55, %list_length.exit, %45, %70
  %.141 = phi ptr [ %71, %70 ], [ %.04051, %45 ], [ %.04051, %list_length.exit ], [ %.04051, %55 ]
  %72 = tail call i32 @bms_next_member(ptr noundef %.043, i32 noundef %46) #8
  %73 = icmp sgt i32 %72, -1
  br i1 %73, label %45, label %._crit_edge

._crit_edge:                                      ; preds = %list_length.exit.thread, %get_eclass_indexes_for_relids.exit
  %.040.lcssa = phi ptr [ null, %get_eclass_indexes_for_relids.exit ], [ %.141, %list_length.exit.thread ]
  ret ptr %.040.lcssa
}